; Function Attrs: mustprogress nofree nounwind uwtable
define noundef nonnull align 1 dereferenceable(1) ptr @_ZN8QuantLib5Money19ConversionTypeProxyaSENS0_14ConversionTypeE(ptr noundef nonnull readnone returned align 1 dereferenceable(1) %this, i32 noundef %t) local_unnamed_addr #7 align 2 {
entry:
  %0 = load atomic i8, ptr @_ZGVZN8QuantLib9SingletonINS_5Money8SettingsESt17integral_constantIbLb0EEE8instanceEvE8instance acquire, align 8
  %guard.uninitialized.i = icmp eq i8 %0, 0
  br i1 %guard.uninitialized.i, label %init.check.i, label %_ZN8QuantLib9SingletonINS_5Money8SettingsESt17integral_constantIbLb0EEE8instanceEv.exit, !prof !3

init.check.i:                                     ; preds = %entry
  %1 = tail call i32 @__cxa_guard_acquire(ptr nonnull @_ZGVZN8QuantLib9SingletonINS_5Money8SettingsESt17integral_constantIbLb0EEE8instanceEvE8instance) #21
  %tobool.not.i = icmp eq i32 %1, 0
  br i1 %tobool.not.i, label %_ZN8QuantLib9SingletonINS_5Money8SettingsESt17integral_constantIbLb0EEE8instanceEv.exit, label %init.i

init.i:                                           ; preds = %init.check.i
  %2 = tail call i32 @__cxa_atexit(ptr nonnull @_ZN8QuantLib5Money8SettingsD2Ev, ptr nonnull @_ZZN8QuantLib9SingletonINS_5Money8SettingsESt17integral_constantIbLb0EEE8instanceEvE8instance, ptr nonnull @__dso_handle) #21
  tail call void @__cxa_guard_release(ptr nonnull @_ZGVZN8QuantLib9SingletonINS_5Money8SettingsESt17integral_constantIbLb0EEE8instanceEvE8instance) #21
  br label %_ZN8QuantLib9SingletonINS_5Money8SettingsESt17integral_constantIbLb0EEE8instanceEv.exit

_ZN8QuantLib9SingletonINS_5Money8SettingsESt17integral_constantIbLb0EEE8instanceEv.exit: ; preds = %entry, %init.check.i, %init.i
  store i32 %t, ptr @_ZZN8QuantLib9SingletonINS_5Money8SettingsESt17integral_constantIbLb0EEE8instanceEvE8instance, align 8, !tbaa !20
  ret ptr %this
}